; Function Attrs: nounwind uwtable
define nonnull ptr @l___private_Lean_Compiler_IR_RC_0__Lean_IR_ExplicitRC_isBorrowParam___boxed(ptr noundef %0, ptr noundef %1, ptr noundef %2) local_unnamed_addr #0 {
  tail call void @lean_inc_heartbeat() #6
  %4 = tail call noalias ptr @mi_malloc_small(i64 noundef 32) #6
  %5 = icmp eq ptr %4, null
  br i1 %5, label %6, label %l___private_Lean_Compiler_IR_RC_0__Lean_IR_ExplicitRC_isBorrowParam.exit

6:                                                ; preds = %3
  tail call void @lean_internal_panic_out_of_memory() #7
  unreachable

l___private_Lean_Compiler_IR_RC_0__Lean_IR_ExplicitRC_isBorrowParam.exit: ; preds = %3
  %7 = getelementptr inbounds nuw i8, ptr %4, i64 4
  store i32 1, ptr %4, align 4, !tbaa !8
  store i32 -184549344, ptr %7, align 4
  %8 = getelementptr inbounds nuw i8, ptr %4, i64 8
  store ptr @l___private_Lean_Compiler_IR_RC_0__Lean_IR_ExplicitRC_isBorrowParam___lambda__1___boxed, ptr %8, align 8, !tbaa !4
  %9 = getelementptr inbounds nuw i8, ptr %4, i64 16
  store i16 2, ptr %9, align 8, !tbaa !16
  %10 = getelementptr inbounds nuw i8, ptr %4, i64 18
  store i16 1, ptr %10, align 2, !tbaa !16
  %11 = getelementptr inbounds nuw i8, ptr %4, i64 24
  store ptr %2, ptr %11, align 8, !tbaa !4
  %12 = getelementptr i8, ptr %1, i64 8
  %.val.i.i = load i64, ptr %12, align 8, !tbaa !13
  %13 = shl i64 %.val.i.i, 1
  %14 = or disjoint i64 %13, 1
  %15 = inttoptr i64 %14 to ptr
  %16 = tail call zeroext range(i8 0, 2) i8 @l_Nat_anyTR_loop___at___private_Lean_Compiler_IR_RC_0__Lean_IR_ExplicitRC_isBorrowParamAux___spec__1(ptr noundef %0, ptr noundef readonly %1, ptr noundef nonnull %4, ptr noundef nonnull %15, ptr noundef nonnull %15, ptr nonnull poison)
  %17 = ptrtoint ptr %1 to i64
  %18 = and i64 %17, 1
  %.not = icmp eq i64 %18, 0
  br i1 %.not, label %19, label %lean_dec.exit6

19:                                               ; preds = %l___private_Lean_Compiler_IR_RC_0__Lean_IR_ExplicitRC_isBorrowParam.exit
  %20 = load i32, ptr %1, align 4, !tbaa !8
  %21 = icmp sgt i32 %20, 1
  br i1 %21, label %22, label %24, !prof !11

22:                                               ; preds = %19
  %23 = add nsw i32 %20, -1
  store i32 %23, ptr %1, align 4, !tbaa !8
  br label %lean_dec.exit6

24:                                               ; preds = %19
  %.not.i = icmp eq i32 %20, 0
  br i1 %.not.i, label %lean_dec.exit6, label %25

25:                                               ; preds = %24
  tail call void @lean_dec_ref_cold(ptr noundef nonnull %1) #6
  br label %lean_dec.exit6

lean_dec.exit6:                                   ; preds = %25, %24, %22, %l___private_Lean_Compiler_IR_RC_0__Lean_IR_ExplicitRC_isBorrowParam.exit
  %26 = ptrtoint ptr %0 to i64
  %27 = and i64 %26, 1
  %.not9 = icmp eq i64 %27, 0
  br i1 %.not9, label %28, label %lean_dec.exit

28:                                               ; preds = %lean_dec.exit6
  %29 = load i32, ptr %0, align 4, !tbaa !8
  %30 = icmp sgt i32 %29, 1
  br i1 %30, label %31, label %33, !prof !11

31:                                               ; preds = %28
  %32 = add nsw i32 %29, -1
  store i32 %32, ptr %0, align 4, !tbaa !8
  br label %lean_dec.exit

33:                                               ; preds = %28
  %.not.i7 = icmp eq i32 %29, 0
  br i1 %.not.i7, label %lean_dec.exit, label %34

34:                                               ; preds = %33
  tail call void @lean_dec_ref_cold(ptr noundef nonnull %0) #6
  br label %lean_dec.exit

lean_dec.exit:                                    ; preds = %34, %33, %31, %lean_dec.exit6
  %35 = shl nuw nsw i8 %16, 1
  %36 = or disjoint i8 %35, 1
  %37 = zext nneg i8 %36 to i64
  %38 = inttoptr i64 %37 to ptr
  ret ptr %38
}